target datalayout = "e-m:e-p270:32:32-p271:32:32-p272:64:64-i64:64-i128:128-f80:128-n8:16:32:64-S128"
target triple = "x86_64-pc-linux-gnu"

%struct.archive_write = type { %struct.archive, i32, i64, i64, ptr, i64, ptr, ptr, ptr, ptr, ptr, i32, i32, ptr, ptr, ptr, ptr, ptr, ptr, ptr, ptr, ptr, ptr, ptr, ptr, ptr, ptr }
%struct.archive = type { i32, i32, ptr, i32, ptr, i32, i32, ptr, %struct.archive_string, ptr, i32, i32, ptr, ptr, i64, i64, i64, i8, i64 }
%struct.archive_string = type { ptr, i64, i64 }
%struct.iso9660 = type { i64, i32, ptr, ptr, %struct.archive_string, i64, i32, %struct.archive_string, %struct.archive_string, ptr, ptr, %struct.anon, %struct.anon.0, %struct.archive_rb_tree, %struct.vdd, %struct.vdd, i32, i32, i32, %struct.archive_string, %struct.archive_string, %struct.archive_string, %struct.archive_string, %struct.archive_string, %struct.archive_string, %struct.archive_string, i32, %struct.anon.1, ptr, i32, [65536 x i8], i64, i32, i64, i64, i64, %struct.anon.2, %struct.iso_option }
%struct.anon = type { ptr, ptr }
%struct.anon.0 = type { ptr, ptr }
%struct.archive_rb_tree = type { ptr, ptr }
%struct.vdd = type { ptr, i32, ptr, i32, i32, i32, i32, i32, i32 }
%struct.anon.1 = type { i8, [64 x i8], i32, ptr, i64, i32, i32, i64, i64, %struct.z_stream_s, i32, i64, i32 }
%struct.z_stream_s = type { ptr, i32, i64, ptr, i32, i64, ptr, ptr, ptr, ptr, ptr, i32, i64, i64 }
%struct.anon.2 = type { %struct.archive_string, ptr, %struct.archive_string, ptr, i8, %struct.archive_string, i8, i8, i16, i16 }
%struct.iso_option = type { i32 }
%struct.isoent = type { %struct.archive_rb_node, ptr, ptr, %struct.anon.3, %struct.archive_rb_tree, %struct.anon.4, ptr, ptr, ptr, ptr, i32, %struct.anon.5, i32, i32, ptr, i32, i32, i32, i32, ptr, ptr, %struct.anon.6, i8 }
%struct.archive_rb_node = type { [2 x ptr], i64 }
%struct.anon.3 = type { ptr, ptr, i32 }
%struct.anon.4 = type { ptr, ptr, i32 }
%struct.anon.5 = type { i32, i32, i32, i32 }
%struct.anon.6 = type { ptr, ptr, ptr }
%struct.isofile = type { ptr, ptr, ptr, ptr, ptr, %struct.archive_string, %struct.archive_string, %struct.archive_string, %struct.archive_string, i32, %struct.content, ptr, i32, i32, %struct.anon.7 }
%struct.content = type { i64, i64, i32, i32, ptr }
%struct.anon.7 = type { i8, i8, i32 }

@.str.57 = private unnamed_addr constant [79 x i8] c"Internal Programming error: iso9660:wb_consume() size=%jd, wbuff_remaining=%jd\00", align 1
@.str.85 = private unnamed_addr constant [6 x i8] c"CD001\00", align 1
@.str.89 = private unnamed_addr constant [24 x i8] c"EL TORITO SPECIFICATION\00", align 1

; Function Attrs: inlinehint nounwind uwtable
define internal void @archive_le32enc(ptr noundef %0, i32 noundef %1) #10 {
  %3 = alloca ptr, align 8
  %4 = alloca i32, align 4
  %5 = alloca ptr, align 8
  store ptr %0, ptr %3, align 8, !tbaa !153
  store i32 %1, ptr %4, align 4, !tbaa !11
  call void @llvm.lifetime.start.p0(i64 8, ptr %5) #13
  %6 = load ptr, ptr %3, align 8, !tbaa !153
  store ptr %6, ptr %5, align 8, !tbaa !133
  %7 = load i32, ptr %4, align 4, !tbaa !11
  %8 = and i32 %7, 255
  %9 = trunc i32 %8 to i8
  %10 = load ptr, ptr %5, align 8, !tbaa !133
  %11 = getelementptr inbounds i8, ptr %10, i64 0
  store i8 %9, ptr %11, align 1, !tbaa !117
  %12 = load i32, ptr %4, align 4, !tbaa !11
  %13 = lshr i32 %12, 8
  %14 = and i32 %13, 255
  %15 = trunc i32 %14 to i8
  %16 = load ptr, ptr %5, align 8, !tbaa !133
  %17 = getelementptr inbounds i8, ptr %16, i64 1
  store i8 %15, ptr %17, align 1, !tbaa !117
  %18 = load i32, ptr %4, align 4, !tbaa !11
  %19 = lshr i32 %18, 16
  %20 = and i32 %19, 255
  %21 = trunc i32 %20 to i8
  %22 = load ptr, ptr %5, align 8, !tbaa !133
  %23 = getelementptr inbounds i8, ptr %22, i64 2
  store i8 %21, ptr %23, align 1, !tbaa !117
  %24 = load i32, ptr %4, align 4, !tbaa !11
  %25 = lshr i32 %24, 24
  %26 = and i32 %25, 255
  %27 = trunc i32 %26 to i8
  %28 = load ptr, ptr %5, align 8, !tbaa !133
  %29 = getelementptr inbounds i8, ptr %28, i64 3
  store i8 %27, ptr %29, align 1, !tbaa !117
  call void @llvm.lifetime.end.p0(i64 8, ptr %5) #13
  ret void
}

; Function Attrs: nounwind uwtable
define internal i32 @wb_consume(ptr noundef %0, i64 noundef %1) #0 {
  %3 = alloca i32, align 4
  %4 = alloca ptr, align 8
  %5 = alloca i64, align 8
  %6 = alloca ptr, align 8
  %7 = alloca i32, align 4
  store ptr %0, ptr %4, align 8, !tbaa !9
  store i64 %1, ptr %5, align 8, !tbaa !154
  call void @llvm.lifetime.start.p0(i64 8, ptr %6) #13
  %8 = load ptr, ptr %4, align 8, !tbaa !9
  %9 = getelementptr inbounds nuw %struct.archive_write, ptr %8, i32 0, i32 15
  %10 = load ptr, ptr %9, align 8, !tbaa !120
  store ptr %10, ptr %6, align 8, !tbaa !22
  %11 = load i64, ptr %5, align 8, !tbaa !154
  %12 = load ptr, ptr %6, align 8, !tbaa !22
  %13 = getelementptr inbounds nuw %struct.iso9660, ptr %12, i32 0, i32 31
  %14 = load i64, ptr %13, align 8, !tbaa !53
  %15 = icmp ugt i64 %11, %14
  br i1 %15, label %21, label %16

16:                                               ; preds = %2
  %17 = load ptr, ptr %6, align 8, !tbaa !22
  %18 = getelementptr inbounds nuw %struct.iso9660, ptr %17, i32 0, i32 31
  %19 = load i64, ptr %18, align 8, !tbaa !53
  %20 = icmp eq i64 %19, 0
  br i1 %20, label %21, label %28

21:                                               ; preds = %16, %2
  %22 = load ptr, ptr %4, align 8, !tbaa !9
  %23 = getelementptr inbounds nuw %struct.archive_write, ptr %22, i32 0, i32 0
  %24 = load i64, ptr %5, align 8, !tbaa !154
  %25 = load ptr, ptr %6, align 8, !tbaa !22
  %26 = getelementptr inbounds nuw %struct.iso9660, ptr %25, i32 0, i32 31
  %27 = load i64, ptr %26, align 8, !tbaa !53
  call void (ptr, i32, ptr, ...) @archive_set_error(ptr noundef %23, i32 noundef -1, ptr noundef @.str.57, i64 noundef %24, i64 noundef %27)
  store i32 -30, ptr %3, align 4
  store i32 1, ptr %7, align 4
  br label %42

28:                                               ; preds = %16
  %29 = load i64, ptr %5, align 8, !tbaa !154
  %30 = load ptr, ptr %6, align 8, !tbaa !22
  %31 = getelementptr inbounds nuw %struct.iso9660, ptr %30, i32 0, i32 31
  %32 = load i64, ptr %31, align 8, !tbaa !53
  %33 = sub i64 %32, %29
  store i64 %33, ptr %31, align 8, !tbaa !53
  %34 = load ptr, ptr %6, align 8, !tbaa !22
  %35 = getelementptr inbounds nuw %struct.iso9660, ptr %34, i32 0, i32 31
  %36 = load i64, ptr %35, align 8, !tbaa !53
  %37 = icmp ult i64 %36, 2048
  br i1 %37, label %38, label %41

38:                                               ; preds = %28
  %39 = load ptr, ptr %4, align 8, !tbaa !9
  %40 = call i32 @wb_write_out(ptr noundef %39)
  store i32 %40, ptr %3, align 4
  store i32 1, ptr %7, align 4
  br label %42

41:                                               ; preds = %28
  store i32 0, ptr %3, align 4
  store i32 1, ptr %7, align 4
  br label %42

42:                                               ; preds = %41, %38, %21
  call void @llvm.lifetime.end.p0(i64 8, ptr %6) #13
  %43 = load i32, ptr %3, align 4
  ret i32 %43
}

; Function Attrs: inlinehint nounwind uwtable
define internal void @set_num_731(ptr noundef %0, i32 noundef %1) #10 {
  %3 = alloca ptr, align 8
  %4 = alloca i32, align 4
  store ptr %0, ptr %3, align 8, !tbaa !133
  store i32 %1, ptr %4, align 4, !tbaa !11
  %5 = load ptr, ptr %3, align 8, !tbaa !133
  %6 = load i32, ptr %4, align 4, !tbaa !11
  call void @archive_le32enc(ptr noundef %5, i32 noundef %6)
  ret void
}

; Function Attrs: inlinehint nounwind uwtable
define internal void @set_unused_field_bp(ptr noundef %0, i32 noundef %1, i32 noundef %2) #10 {
  %4 = alloca ptr, align 8
  %5 = alloca i32, align 4
  %6 = alloca i32, align 4
  store ptr %0, ptr %4, align 8, !tbaa !133
  store i32 %1, ptr %5, align 4, !tbaa !11
  store i32 %2, ptr %6, align 4, !tbaa !11
  %7 = load ptr, ptr %4, align 8, !tbaa !133
  %8 = load i32, ptr %5, align 4, !tbaa !11
  %9 = sext i32 %8 to i64
  %10 = getelementptr inbounds i8, ptr %7, i64 %9
  %11 = load i32, ptr %6, align 4, !tbaa !11
  %12 = load i32, ptr %5, align 4, !tbaa !11
  %13 = sub nsw i32 %11, %12
  %14 = add nsw i32 %13, 1
  %15 = sext i32 %14 to i64
  call void @llvm.memset.p0.i64(ptr align 1 %10, i8 0, i64 %15, i1 false)
  ret void
}

; Function Attrs: nounwind uwtable
define internal void @set_VD_bp(ptr noundef %0, i32 noundef %1, i8 noundef zeroext %2) #0 {
  %4 = alloca ptr, align 8
  %5 = alloca i32, align 4
  %6 = alloca i8, align 1
  store ptr %0, ptr %4, align 8, !tbaa !133
  store i32 %1, ptr %5, align 4, !tbaa !11
  store i8 %2, ptr %6, align 1, !tbaa !117
  %7 = load i32, ptr %5, align 4, !tbaa !11
  %8 = trunc i32 %7 to i8
  %9 = load ptr, ptr %4, align 8, !tbaa !133
  %10 = getelementptr inbounds i8, ptr %9, i64 1
  store i8 %8, ptr %10, align 1, !tbaa !117
  %11 = load ptr, ptr %4, align 8, !tbaa !133
  %12 = getelementptr inbounds i8, ptr %11, i64 2
  call void @llvm.memcpy.p0.p0.i64(ptr align 1 %12, ptr align 1 @.str.85, i64 5, i1 false)
  %13 = load i8, ptr %6, align 1, !tbaa !117
  %14 = load ptr, ptr %4, align 8, !tbaa !133
  %15 = getelementptr inbounds i8, ptr %14, i64 7
  store i8 %13, ptr %15, align 1, !tbaa !117
  ret void
}

; Function Attrs: inlinehint nounwind uwtable
define internal ptr @wb_buffptr(ptr noundef %0) #10 {
  %2 = alloca ptr, align 8
  %3 = alloca ptr, align 8
  store ptr %0, ptr %2, align 8, !tbaa !9
  call void @llvm.lifetime.start.p0(i64 8, ptr %3) #13
  %4 = load ptr, ptr %2, align 8, !tbaa !9
  %5 = getelementptr inbounds nuw %struct.archive_write, ptr %4, i32 0, i32 15
  %6 = load ptr, ptr %5, align 8, !tbaa !120
  store ptr %6, ptr %3, align 8, !tbaa !22
  %7 = load ptr, ptr %3, align 8, !tbaa !22
  %8 = getelementptr inbounds nuw %struct.iso9660, ptr %7, i32 0, i32 30
  %9 = load ptr, ptr %3, align 8, !tbaa !22
  %10 = getelementptr inbounds nuw %struct.iso9660, ptr %9, i32 0, i32 31
  %11 = load i64, ptr %10, align 8, !tbaa !53
  %12 = sub i64 65536, %11
  %13 = getelementptr inbounds nuw [65536 x i8], ptr %8, i64 0, i64 %12
  call void @llvm.lifetime.end.p0(i64 8, ptr %3) #13
  ret ptr %13
}

; Function Attrs: nounwind uwtable
define internal i32 @write_VD_boot_record(ptr noundef %0) #0 {
  %2 = alloca ptr, align 8
  %3 = alloca ptr, align 8
  %4 = alloca ptr, align 8
  store ptr %0, ptr %2, align 8, !tbaa !9
  call void @llvm.lifetime.start.p0(i64 8, ptr %3) #13
  call void @llvm.lifetime.start.p0(i64 8, ptr %4) #13
  %5 = load ptr, ptr %2, align 8, !tbaa !9
  %6 = getelementptr inbounds nuw %struct.archive_write, ptr %5, i32 0, i32 15
  %7 = load ptr, ptr %6, align 8, !tbaa !120
  store ptr %7, ptr %3, align 8, !tbaa !22
  %8 = load ptr, ptr %2, align 8, !tbaa !9
  %9 = call ptr @wb_buffptr(ptr noundef %8)
  %10 = getelementptr inbounds i8, ptr %9, i64 -1
  store ptr %10, ptr %4, align 8, !tbaa !133
  %11 = load ptr, ptr %4, align 8, !tbaa !133
  call void @set_VD_bp(ptr noundef %11, i32 noundef 0, i8 noundef zeroext 1)
  %12 = load ptr, ptr %4, align 8, !tbaa !133
  %13 = getelementptr inbounds i8, ptr %12, i64 8
  call void @llvm.memcpy.p0.p0.i64(ptr align 1 %13, ptr align 1 @.str.89, i64 23, i1 false)
  %14 = load ptr, ptr %4, align 8, !tbaa !133
  call void @set_unused_field_bp(ptr noundef %14, i32 noundef 31, i32 noundef 39)
  %15 = load ptr, ptr %4, align 8, !tbaa !133
  call void @set_unused_field_bp(ptr noundef %15, i32 noundef 40, i32 noundef 71)
  %16 = load ptr, ptr %4, align 8, !tbaa !133
  %17 = getelementptr inbounds i8, ptr %16, i64 72
  %18 = load ptr, ptr %3, align 8, !tbaa !22
  %19 = getelementptr inbounds nuw %struct.iso9660, ptr %18, i32 0, i32 36
  %20 = getelementptr inbounds nuw %struct.anon.2, ptr %19, i32 0, i32 1
  %21 = load ptr, ptr %20, align 8, !tbaa !88
  %22 = getelementptr inbounds nuw %struct.isoent, ptr %21, i32 0, i32 1
  %23 = load ptr, ptr %22, align 8, !tbaa !149
  %24 = getelementptr inbounds nuw %struct.isofile, ptr %23, i32 0, i32 10
  %25 = getelementptr inbounds nuw %struct.content, ptr %24, i32 0, i32 3
  %26 = load i32, ptr %25, align 4, !tbaa !286
  call void @set_num_731(ptr noundef %17, i32 noundef %26)
  %27 = load ptr, ptr %4, align 8, !tbaa !133
  call void @set_unused_field_bp(ptr noundef %27, i32 noundef 76, i32 noundef 2048)
  %28 = load ptr, ptr %2, align 8, !tbaa !9
  %29 = call i32 @wb_consume(ptr noundef %28, i64 noundef 2048)
  call void @llvm.lifetime.end.p0(i64 8, ptr %4) #13
  call void @llvm.lifetime.end.p0(i64 8, ptr %3) #13
  ret i32 %29
}