; Function Attrs: nounwind uwtable
define internal fastcc i32 @write_VD_boot_record(ptr noundef %0) unnamed_addr #0 {
  %2 = getelementptr inbounds nuw i8, ptr %0, i64 248
  %3 = load ptr, ptr %2, align 8, !tbaa !69
  %4 = getelementptr inbounds nuw i8, ptr %3, i64 732
  %5 = getelementptr inbounds nuw i8, ptr %3, i64 66272
  %6 = load i64, ptr %5, align 8, !tbaa !50
  %7 = sub i64 65536, %6
  %8 = getelementptr inbounds nuw [65536 x i8], ptr %4, i64 0, i64 %7
  store i8 0, ptr %8, align 1, !tbaa !68
  %9 = getelementptr inbounds nuw i8, ptr %8, i64 1
  tail call void @llvm.memcpy.p0.p0.i64(ptr noundef nonnull align 1 dereferenceable(5) %9, ptr noundef nonnull align 1 dereferenceable(5) @.str.85, i64 5, i1 false)
  %10 = getelementptr inbounds nuw i8, ptr %8, i64 6
  store i8 1, ptr %10, align 1, !tbaa !68
  %11 = getelementptr inbounds nuw i8, ptr %8, i64 7
  tail call void @llvm.memcpy.p0.p0.i64(ptr noundef nonnull align 1 dereferenceable(23) %11, ptr noundef nonnull align 1 dereferenceable(23) @.str.89, i64 23, i1 false)
  %12 = getelementptr inbounds nuw i8, ptr %8, i64 30
  %13 = getelementptr inbounds nuw i8, ptr %8, i64 71
  %14 = getelementptr inbounds nuw i8, ptr %3, i64 66336
  tail call void @llvm.memset.p0.i64(ptr noundef nonnull align 1 dereferenceable(41) %12, i8 0, i64 41, i1 false)
  %15 = load ptr, ptr %14, align 8, !tbaa !146
  %16 = getelementptr inbounds nuw i8, ptr %15, i64 24
  %17 = load ptr, ptr %16, align 8, !tbaa !91
  %18 = getelementptr inbounds nuw i8, ptr %17, i64 164
  %19 = load i32, ptr %18, align 4, !tbaa !204
  %20 = trunc i32 %19 to i8
  store i8 %20, ptr %13, align 1, !tbaa !68
  %21 = lshr i32 %19, 8
  %22 = trunc i32 %21 to i8
  %23 = getelementptr inbounds nuw i8, ptr %8, i64 72
  store i8 %22, ptr %23, align 1, !tbaa !68
  %24 = lshr i32 %19, 16
  %25 = trunc i32 %24 to i8
  %26 = getelementptr inbounds nuw i8, ptr %8, i64 73
  store i8 %25, ptr %26, align 1, !tbaa !68
  %27 = lshr i32 %19, 24
  %28 = trunc nuw i32 %27 to i8
  %29 = getelementptr inbounds nuw i8, ptr %8, i64 74
  store i8 %28, ptr %29, align 1, !tbaa !68
  %30 = getelementptr inbounds nuw i8, ptr %8, i64 75
  tail call void @llvm.memset.p0.i64(ptr noundef nonnull align 1 dereferenceable(1973) %30, i8 0, i64 1973, i1 false)
  %31 = load ptr, ptr %2, align 8, !tbaa !69
  %32 = getelementptr inbounds nuw i8, ptr %31, i64 66272
  %33 = load i64, ptr %32, align 8, !tbaa !50
  %34 = icmp ult i64 %33, 2048
  br i1 %34, label %35, label %36

35:                                               ; preds = %1
  tail call void (ptr, i32, ptr, ...) @archive_set_error(ptr noundef nonnull %0, i32 noundef -1, ptr noundef nonnull @.str.57, i64 noundef 2048, i64 noundef %33) #23
  br label %wb_consume.exit

36:                                               ; preds = %1
  %37 = add i64 %33, -2048
  store i64 %37, ptr %32, align 8, !tbaa !50
  %38 = icmp ult i64 %37, 2048
  br i1 %38, label %39, label %wb_consume.exit

39:                                               ; preds = %36
  %40 = tail call fastcc i32 @wb_write_out(ptr noundef nonnull %0)
  br label %wb_consume.exit

wb_consume.exit:                                  ; preds = %35, %36, %39
  %.0.i = phi i32 [ -30, %35 ], [ %40, %39 ], [ 0, %36 ]
  ret i32 %.0.i
}